; Function Attrs: nounwind uwtable
define ptr @l_Lean_Meta_Grind_Arith_Cutsat_DvdSolution_leAvoiding(ptr noundef readonly captures(none) %0, ptr noundef %1, ptr noundef readonly captures(none) %2) local_unnamed_addr #1 {
  br label %lean_dec.exit

lean_dec.exit:                                    ; preds = %lean_dec.exit.backedge, %3
  %.012 = phi ptr [ %1, %3 ], [ %.012.be, %lean_dec.exit.backedge ]
  %4 = tail call ptr @l_Lean_Meta_Grind_Arith_Cutsat_DvdSolution_le(ptr noundef %0, ptr noundef %.012)
  %5 = ptrtoint ptr %.012 to i64
  %6 = and i64 %5, 1
  %.not = icmp eq i64 %6, 0
  br i1 %.not, label %7, label %lean_dec.exit15

7:                                                ; preds = %lean_dec.exit
  %8 = load i32, ptr %.012, align 4, !tbaa !6
  %9 = icmp sgt i32 %8, 1
  br i1 %9, label %10, label %12, !prof !5

10:                                               ; preds = %7
  %11 = add nsw i32 %8, -1
  store i32 %11, ptr %.012, align 4, !tbaa !6
  br label %lean_dec.exit15

12:                                               ; preds = %7
  %.not.i = icmp eq i32 %8, 0
  br i1 %.not.i, label %lean_dec.exit15, label %13

13:                                               ; preds = %12
  tail call void @lean_dec_ref_cold(ptr noundef nonnull %.012) #6
  br label %lean_dec.exit15

lean_dec.exit15:                                  ; preds = %13, %12, %10, %lean_dec.exit
  %14 = tail call ptr @l_Lean_Meta_Grind_Arith_Cutsat_findDiseq_x3f(ptr noundef %4, ptr noundef readonly %2)
  %15 = ptrtoint ptr %14 to i64
  %16 = and i64 %15, 1
  %.not.i6.i = icmp eq i64 %16, 0
  br i1 %.not.i6.i, label %lean_obj_tag.exit.thread.i, label %l_Lean_Meta_Grind_Arith_Cutsat_inDiseqValues.exit

lean_obj_tag.exit.thread.i:                       ; preds = %lean_dec.exit15
  %17 = getelementptr i8, ptr %14, i64 4
  %.val.i.i = load i32, ptr %17, align 4
  %18 = icmp ult i32 %.val.i.i, 16777216
  br i1 %18, label %l_Lean_Meta_Grind_Arith_Cutsat_inDiseqValues.exit.thread21, label %.thread.i

.thread.i:                                        ; preds = %lean_obj_tag.exit.thread.i
  %19 = load i32, ptr %14, align 4, !tbaa !6
  %20 = icmp sgt i32 %19, 1
  br i1 %20, label %21, label %23, !prof !5

21:                                               ; preds = %.thread.i
  %22 = add nsw i32 %19, -1
  store i32 %22, ptr %14, align 4, !tbaa !6
  br label %l_Lean_Meta_Grind_Arith_Cutsat_inDiseqValues.exit.thread

23:                                               ; preds = %.thread.i
  %.not.i.i = icmp eq i32 %19, 0
  br i1 %.not.i.i, label %l_Lean_Meta_Grind_Arith_Cutsat_inDiseqValues.exit.thread, label %24

24:                                               ; preds = %23
  tail call void @lean_dec_ref_cold(ptr noundef nonnull %14) #6
  br label %l_Lean_Meta_Grind_Arith_Cutsat_inDiseqValues.exit.thread

l_Lean_Meta_Grind_Arith_Cutsat_inDiseqValues.exit: ; preds = %lean_dec.exit15
  %25 = and i64 %15, 8589934590
  %.not32 = icmp eq i64 %25, 0
  br i1 %.not32, label %l_Lean_Meta_Grind_Arith_Cutsat_inDiseqValues.exit.thread21, label %l_Lean_Meta_Grind_Arith_Cutsat_inDiseqValues.exit.thread

l_Lean_Meta_Grind_Arith_Cutsat_inDiseqValues.exit.thread: ; preds = %21, %23, %24, %l_Lean_Meta_Grind_Arith_Cutsat_inDiseqValues.exit
  %26 = load ptr, ptr @l_Lean_Meta_Grind_Arith_Cutsat_DvdSolution_geAvoiding___closed__1, align 8, !tbaa !11
  %27 = ptrtoint ptr %4 to i64
  %28 = and i64 %27, 1
  %.not.i18 = icmp eq i64 %28, 0
  br i1 %.not.i18, label %48, label %29, !prof !4

29:                                               ; preds = %l_Lean_Meta_Grind_Arith_Cutsat_inDiseqValues.exit.thread
  %30 = ptrtoint ptr %26 to i64
  %31 = and i64 %30, 1
  %.not7.i = icmp eq i64 %31, 0
  br i1 %.not7.i, label %lean_int_sub.exit.thread25, label %33, !prof !4

lean_int_sub.exit.thread25:                       ; preds = %29
  %32 = tail call ptr @lean_int_big_sub(ptr noundef %4, ptr noundef %26) #6
  br label %lean_dec.exit.backedge

33:                                               ; preds = %29
  %34 = shl i64 %27, 31
  %35 = ashr i64 %34, 32
  %36 = shl i64 %30, 31
  %37 = ashr i64 %36, 32
  %38 = sub nsw i64 %35, %37
  %39 = add nsw i64 %38, 2147483648
  %40 = icmp ult i64 %39, 4294967296
  br i1 %40, label %41, label %46, !prof !5

41:                                               ; preds = %33
  %42 = shl nsw i64 %38, 1
  %43 = and i64 %42, 8589934590
  %44 = or disjoint i64 %43, 1
  %45 = inttoptr i64 %44 to ptr
  br label %lean_dec.exit.backedge

46:                                               ; preds = %33
  %47 = tail call ptr @lean_big_int64_to_int(i64 noundef range(i64 -4611686016279904256, 4611686018427387905) %38) #6
  br label %lean_dec.exit.backedge

lean_dec.exit.backedge:                           ; preds = %46, %41, %lean_int_sub.exit.thread25, %52, %54, %55
  %.012.be = phi ptr [ %32, %lean_int_sub.exit.thread25 ], [ %49, %52 ], [ %49, %54 ], [ %49, %55 ], [ %47, %46 ], [ %45, %41 ]
  br label %lean_dec.exit

48:                                               ; preds = %l_Lean_Meta_Grind_Arith_Cutsat_inDiseqValues.exit.thread
  %49 = tail call ptr @lean_int_big_sub(ptr noundef %4, ptr noundef %26) #6
  %50 = load i32, ptr %4, align 4, !tbaa !6
  %51 = icmp sgt i32 %50, 1
  br i1 %51, label %52, label %54, !prof !5

52:                                               ; preds = %48
  %53 = add nsw i32 %50, -1
  store i32 %53, ptr %4, align 4, !tbaa !6
  br label %lean_dec.exit.backedge

54:                                               ; preds = %48
  %.not.i16 = icmp eq i32 %50, 0
  br i1 %.not.i16, label %lean_dec.exit.backedge, label %55

55:                                               ; preds = %54
  tail call void @lean_dec_ref_cold(ptr noundef nonnull %4) #6
  br label %lean_dec.exit.backedge

l_Lean_Meta_Grind_Arith_Cutsat_inDiseqValues.exit.thread21: ; preds = %lean_obj_tag.exit.thread.i, %l_Lean_Meta_Grind_Arith_Cutsat_inDiseqValues.exit
  ret ptr %4
}